; Function Attrs: nounwind uwtable
define ptr @SXNET_get_id_INTEGER(ptr noundef readonly captures(none) %0, ptr noundef %1) local_unnamed_addr #1 {
  %3 = getelementptr inbounds nuw i8, ptr %0, i64 8
  %4 = load ptr, ptr %3, align 8, !tbaa !18
  %5 = tail call i32 @OPENSSL_sk_num(ptr noundef %4) #5
  %6 = icmp sgt i32 %5, 0
  br i1 %6, label %.lr.ph, label %.loopexit

7:                                                ; preds = %.lr.ph
  %8 = add nuw nsw i32 %.09, 1
  %9 = load ptr, ptr %3, align 8, !tbaa !18
  %10 = tail call i32 @OPENSSL_sk_num(ptr noundef %9) #5
  %11 = icmp slt i32 %8, %10
  br i1 %11, label %.lr.ph, label %.loopexit, !llvm.loop !23

.lr.ph:                                           ; preds = %2, %7
  %.09 = phi i32 [ %8, %7 ], [ 0, %2 ]
  %12 = load ptr, ptr %3, align 8, !tbaa !18
  %13 = tail call ptr @OPENSSL_sk_value(ptr noundef %12, i32 noundef %.09) #5
  %14 = load ptr, ptr %13, align 8, !tbaa !19
  %15 = tail call i32 @ASN1_INTEGER_cmp(ptr noundef %14, ptr noundef %1) #5
  %.not = icmp eq i32 %15, 0
  br i1 %.not, label %16, label %7

16:                                               ; preds = %.lr.ph
  %17 = getelementptr inbounds nuw i8, ptr %13, i64 8
  %18 = load ptr, ptr %17, align 8, !tbaa !21
  br label %.loopexit

.loopexit:                                        ; preds = %7, %2, %16
  %.08 = phi ptr [ %18, %16 ], [ null, %2 ], [ null, %7 ]
  ret ptr %.08
}